target datalayout = "e-m:e-p270:32:32-p271:32:32-p272:64:64-i64:64-i128:128-f80:128-n8:16:32:64-S128"
target triple = "x86_64-pc-linux-gnu"

%struct.Dau_Dsd_t_ = type { i32, i32, i32, i32, i32, i32, i32, i32, ptr, [32 x [8 x i8]], [32 x [32 x i8]], [2000 x i8] }

; Function Attrs: inlinehint nounwind uwtable
define internal void @Dau_DsdFinalize(ptr noundef %0) #2 {
  %2 = alloca ptr, align 8
  %3 = alloca i32, align 4
  store ptr %0, ptr %2, align 8, !tbaa !80
  call void @llvm.lifetime.start.p0(i64 4, ptr %3) #9
  store i32 0, ptr %3, align 4, !tbaa !8
  br label %4

4:                                                ; preds = %33, %1
  %5 = load i32, ptr %3, align 4, !tbaa !8
  %6 = load ptr, ptr %2, align 8, !tbaa !80
  %7 = getelementptr inbounds nuw %struct.Dau_Dsd_t_, ptr %6, i32 0, i32 4
  %8 = load i32, ptr %7, align 8, !tbaa !100
  %9 = icmp slt i32 %5, %8
  br i1 %9, label %10, label %36

10:                                               ; preds = %4
  %11 = load ptr, ptr %2, align 8, !tbaa !80
  %12 = getelementptr inbounds nuw %struct.Dau_Dsd_t_, ptr %11, i32 0, i32 5
  %13 = load i32, ptr %12, align 4, !tbaa !101
  %14 = load ptr, ptr %2, align 8, !tbaa !80
  %15 = getelementptr inbounds nuw %struct.Dau_Dsd_t_, ptr %14, i32 0, i32 4
  %16 = load i32, ptr %15, align 8, !tbaa !100
  %17 = sub nsw i32 %16, 1
  %18 = load i32, ptr %3, align 4, !tbaa !8
  %19 = sub nsw i32 %17, %18
  %20 = ashr i32 %13, %19
  %21 = and i32 %20, 1
  %22 = icmp ne i32 %21, 0
  %23 = select i1 %22, i32 93, i32 41
  %24 = trunc i32 %23 to i8
  %25 = load ptr, ptr %2, align 8, !tbaa !80
  %26 = getelementptr inbounds nuw %struct.Dau_Dsd_t_, ptr %25, i32 0, i32 11
  %27 = load ptr, ptr %2, align 8, !tbaa !80
  %28 = getelementptr inbounds nuw %struct.Dau_Dsd_t_, ptr %27, i32 0, i32 2
  %29 = load i32, ptr %28, align 8, !tbaa !102
  %30 = add nsw i32 %29, 1
  store i32 %30, ptr %28, align 8, !tbaa !102
  %31 = sext i32 %29 to i64
  %32 = getelementptr inbounds [2000 x i8], ptr %26, i64 0, i64 %31
  store i8 %24, ptr %32, align 1, !tbaa !10
  br label %33

33:                                               ; preds = %10
  %34 = load i32, ptr %3, align 4, !tbaa !8
  %35 = add nsw i32 %34, 1
  store i32 %35, ptr %3, align 4, !tbaa !8
  br label %4, !llvm.loop !125

36:                                               ; preds = %4
  %37 = load ptr, ptr %2, align 8, !tbaa !80
  %38 = getelementptr inbounds nuw %struct.Dau_Dsd_t_, ptr %37, i32 0, i32 11
  %39 = load ptr, ptr %2, align 8, !tbaa !80
  %40 = getelementptr inbounds nuw %struct.Dau_Dsd_t_, ptr %39, i32 0, i32 2
  %41 = load i32, ptr %40, align 8, !tbaa !102
  %42 = add nsw i32 %41, 1
  store i32 %42, ptr %40, align 8, !tbaa !102
  %43 = sext i32 %41 to i64
  %44 = getelementptr inbounds [2000 x i8], ptr %38, i64 0, i64 %43
  store i8 0, ptr %44, align 1, !tbaa !10
  call void @llvm.lifetime.end.p0(i64 4, ptr %3) #9
  ret void
}

; Function Attrs: nounwind uwtable
define i32 @Dau_DsdDecomposeInternal(ptr noundef %0, ptr noundef %1, ptr noundef %2, i32 noundef %3) #0 {
  %5 = alloca i32, align 4
  %6 = alloca ptr, align 8
  %7 = alloca ptr, align 8
  %8 = alloca ptr, align 8
  %9 = alloca i32, align 4
  store ptr %0, ptr %6, align 8, !tbaa !80
  store ptr %1, ptr %7, align 8, !tbaa !35
  store ptr %2, ptr %8, align 8, !tbaa !14
  store i32 %3, ptr %9, align 4, !tbaa !8
  %10 = load ptr, ptr %6, align 8, !tbaa !80
  %11 = load ptr, ptr %7, align 8, !tbaa !35
  %12 = load ptr, ptr %8, align 8, !tbaa !14
  %13 = load i32, ptr %9, align 4, !tbaa !8
  %14 = call i32 @Dau_DsdDecomposeSingleVar(ptr noundef %10, ptr noundef %11, ptr noundef %12, i32 noundef %13)
  store i32 %14, ptr %9, align 4, !tbaa !8
  %15 = load i32, ptr %9, align 4, !tbaa !8
  %16 = icmp eq i32 %15, 0
  br i1 %16, label %17, label %18

17:                                               ; preds = %4
  store i32 0, ptr %5, align 4
  br label %42

18:                                               ; preds = %4
  %19 = load ptr, ptr %6, align 8, !tbaa !80
  %20 = load ptr, ptr %7, align 8, !tbaa !35
  %21 = load ptr, ptr %8, align 8, !tbaa !14
  %22 = load i32, ptr %9, align 4, !tbaa !8
  %23 = call i32 @Dau_DsdDecomposeDoubleVars(ptr noundef %19, ptr noundef %20, ptr noundef %21, i32 noundef %22)
  store i32 %23, ptr %9, align 4, !tbaa !8
  %24 = load i32, ptr %9, align 4, !tbaa !8
  %25 = icmp eq i32 %24, 0
  br i1 %25, label %26, label %27

26:                                               ; preds = %18
  store i32 0, ptr %5, align 4
  br label %42

27:                                               ; preds = %18
  %28 = load ptr, ptr %6, align 8, !tbaa !80
  %29 = load ptr, ptr %7, align 8, !tbaa !35
  %30 = load ptr, ptr %8, align 8, !tbaa !14
  %31 = load i32, ptr %9, align 4, !tbaa !8
  %32 = call i32 @Dau_DsdDecomposeTripleVars(ptr noundef %28, ptr noundef %29, ptr noundef %30, i32 noundef %31)
  store i32 %32, ptr %9, align 4, !tbaa !8
  %33 = load i32, ptr %9, align 4, !tbaa !8
  %34 = icmp eq i32 %33, 0
  br i1 %34, label %35, label %36

35:                                               ; preds = %27
  store i32 0, ptr %5, align 4
  br label %42

36:                                               ; preds = %27
  %37 = load ptr, ptr %6, align 8, !tbaa !80
  %38 = load ptr, ptr %7, align 8, !tbaa !35
  %39 = load ptr, ptr %8, align 8, !tbaa !14
  %40 = load i32, ptr %9, align 4, !tbaa !8
  %41 = call i32 @Dau_DsdWritePrime(ptr noundef %37, ptr noundef %38, ptr noundef %39, i32 noundef %40)
  store i32 %41, ptr %5, align 4
  br label %42

42:                                               ; preds = %36, %35, %26, %17
  %43 = load i32, ptr %5, align 4
  ret i32 %43
}

; Function Attrs: nounwind uwtable
define i32 @Dau_Dsd6DecomposeInternal(ptr noundef %0, ptr noundef %1, ptr noundef %2, i32 noundef %3) #0 {
  %5 = alloca i32, align 4
  %6 = alloca ptr, align 8
  %7 = alloca ptr, align 8
  %8 = alloca ptr, align 8
  %9 = alloca i32, align 4
  store ptr %0, ptr %6, align 8, !tbaa !80
  store ptr %1, ptr %7, align 8, !tbaa !35
  store ptr %2, ptr %8, align 8, !tbaa !14
  store i32 %3, ptr %9, align 4, !tbaa !8
  %10 = load ptr, ptr %6, align 8, !tbaa !80
  %11 = load ptr, ptr %7, align 8, !tbaa !35
  %12 = load ptr, ptr %8, align 8, !tbaa !14
  %13 = load i32, ptr %9, align 4, !tbaa !8
  %14 = call i32 @Dau_Dsd6DecomposeSingleVar(ptr noundef %10, ptr noundef %11, ptr noundef %12, i32 noundef %13)
  store i32 %14, ptr %9, align 4, !tbaa !8
  %15 = load i32, ptr %9, align 4, !tbaa !8
  %16 = icmp eq i32 %15, 0
  br i1 %16, label %17, label %18

17:                                               ; preds = %4
  store i32 0, ptr %5, align 4
  br label %42

18:                                               ; preds = %4
  %19 = load ptr, ptr %6, align 8, !tbaa !80
  %20 = load ptr, ptr %7, align 8, !tbaa !35
  %21 = load ptr, ptr %8, align 8, !tbaa !14
  %22 = load i32, ptr %9, align 4, !tbaa !8
  %23 = call i32 @Dau_Dsd6DecomposeDoubleVars(ptr noundef %19, ptr noundef %20, ptr noundef %21, i32 noundef %22)
  store i32 %23, ptr %9, align 4, !tbaa !8
  %24 = load i32, ptr %9, align 4, !tbaa !8
  %25 = icmp eq i32 %24, 0
  br i1 %25, label %26, label %27

26:                                               ; preds = %18
  store i32 0, ptr %5, align 4
  br label %42

27:                                               ; preds = %18
  %28 = load ptr, ptr %6, align 8, !tbaa !80
  %29 = load ptr, ptr %7, align 8, !tbaa !35
  %30 = load ptr, ptr %8, align 8, !tbaa !14
  %31 = load i32, ptr %9, align 4, !tbaa !8
  %32 = call i32 @Dau_Dsd6DecomposeTripleVars(ptr noundef %28, ptr noundef %29, ptr noundef %30, i32 noundef %31)
  store i32 %32, ptr %9, align 4, !tbaa !8
  %33 = load i32, ptr %9, align 4, !tbaa !8
  %34 = icmp eq i32 %33, 0
  br i1 %34, label %35, label %36

35:                                               ; preds = %27
  store i32 0, ptr %5, align 4
  br label %42

36:                                               ; preds = %27
  %37 = load ptr, ptr %6, align 8, !tbaa !80
  %38 = load ptr, ptr %7, align 8, !tbaa !35
  %39 = load ptr, ptr %8, align 8, !tbaa !14
  %40 = load i32, ptr %9, align 4, !tbaa !8
  %41 = call i32 @Dau_DsdWritePrime(ptr noundef %37, ptr noundef %38, ptr noundef %39, i32 noundef %40)
  store i32 %41, ptr %5, align 4
  br label %42

42:                                               ; preds = %36, %35, %26, %17
  %43 = load i32, ptr %5, align 4
  ret i32 %43
}

; Function Attrs: inlinehint nounwind uwtable
define internal void @Dau_DsdInitialize(ptr noundef %0, i32 noundef %1) #2 {
  %3 = alloca ptr, align 8
  %4 = alloca i32, align 4
  %5 = alloca i32, align 4
  %6 = alloca i32, align 4
  %7 = alloca i32, align 4
  store ptr %0, ptr %3, align 8, !tbaa !80
  store i32 %1, ptr %4, align 4, !tbaa !8
  call void @llvm.lifetime.start.p0(i64 4, ptr %5) #9
  call void @llvm.lifetime.start.p0(i64 4, ptr %6) #9
  call void @llvm.lifetime.start.p0(i64 4, ptr %7) #9
  %8 = load i32, ptr %4, align 4, !tbaa !8
  %9 = load ptr, ptr %3, align 8, !tbaa !80
  %10 = getelementptr inbounds nuw %struct.Dau_Dsd_t_, ptr %9, i32 0, i32 0
  store i32 %8, ptr %10, align 8, !tbaa !87
  %11 = load i32, ptr %4, align 4, !tbaa !8
  %12 = load ptr, ptr %3, align 8, !tbaa !80
  %13 = getelementptr inbounds nuw %struct.Dau_Dsd_t_, ptr %12, i32 0, i32 1
  store i32 %11, ptr %13, align 4, !tbaa !88
  %14 = load ptr, ptr %3, align 8, !tbaa !80
  %15 = getelementptr inbounds nuw %struct.Dau_Dsd_t_, ptr %14, i32 0, i32 2
  store i32 0, ptr %15, align 8, !tbaa !102
  %16 = load ptr, ptr %3, align 8, !tbaa !80
  %17 = getelementptr inbounds nuw %struct.Dau_Dsd_t_, ptr %16, i32 0, i32 3
  store i32 0, ptr %17, align 4, !tbaa !86
  %18 = load ptr, ptr %3, align 8, !tbaa !80
  %19 = getelementptr inbounds nuw %struct.Dau_Dsd_t_, ptr %18, i32 0, i32 4
  store i32 0, ptr %19, align 8, !tbaa !100
  %20 = load ptr, ptr %3, align 8, !tbaa !80
  %21 = getelementptr inbounds nuw %struct.Dau_Dsd_t_, ptr %20, i32 0, i32 5
  store i32 0, ptr %21, align 4, !tbaa !101
  store i32 0, ptr %5, align 4, !tbaa !8
  br label %22

22:                                               ; preds = %42, %2
  %23 = load i32, ptr %5, align 4, !tbaa !8
  %24 = load i32, ptr %4, align 4, !tbaa !8
  %25 = icmp slt i32 %23, %24
  br i1 %25, label %26, label %45

26:                                               ; preds = %22
  %27 = load i32, ptr %5, align 4, !tbaa !8
  %28 = add nsw i32 97, %27
  %29 = trunc i32 %28 to i8
  %30 = load ptr, ptr %3, align 8, !tbaa !80
  %31 = getelementptr inbounds nuw %struct.Dau_Dsd_t_, ptr %30, i32 0, i32 9
  %32 = load i32, ptr %5, align 4, !tbaa !8
  %33 = sext i32 %32 to i64
  %34 = getelementptr inbounds [32 x [8 x i8]], ptr %31, i64 0, i64 %33
  %35 = getelementptr inbounds [8 x i8], ptr %34, i64 0, i64 0
  store i8 %29, ptr %35, align 8, !tbaa !10
  %36 = load ptr, ptr %3, align 8, !tbaa !80
  %37 = getelementptr inbounds nuw %struct.Dau_Dsd_t_, ptr %36, i32 0, i32 9
  %38 = load i32, ptr %5, align 4, !tbaa !8
  %39 = sext i32 %38 to i64
  %40 = getelementptr inbounds [32 x [8 x i8]], ptr %37, i64 0, i64 %39
  %41 = getelementptr inbounds [8 x i8], ptr %40, i64 0, i64 1
  store i8 0, ptr %41, align 1, !tbaa !10
  br label %42

42:                                               ; preds = %26
  %43 = load i32, ptr %5, align 4, !tbaa !8
  %44 = add nsw i32 %43, 1
  store i32 %44, ptr %5, align 4, !tbaa !8
  br label %22, !llvm.loop !122

45:                                               ; preds = %22
  store i32 0, ptr %6, align 4, !tbaa !8
  br label %46

46:                                               ; preds = %68, %45
  %47 = load i32, ptr %6, align 4, !tbaa !8
  %48 = load i32, ptr %4, align 4, !tbaa !8
  %49 = icmp slt i32 %47, %48
  br i1 %49, label %50, label %71

50:                                               ; preds = %46
  store i32 0, ptr %7, align 4, !tbaa !8
  br label %51

51:                                               ; preds = %64, %50
  %52 = load i32, ptr %7, align 4, !tbaa !8
  %53 = load i32, ptr %4, align 4, !tbaa !8
  %54 = icmp slt i32 %52, %53
  br i1 %54, label %55, label %67

55:                                               ; preds = %51
  %56 = load ptr, ptr %3, align 8, !tbaa !80
  %57 = getelementptr inbounds nuw %struct.Dau_Dsd_t_, ptr %56, i32 0, i32 10
  %58 = load i32, ptr %6, align 4, !tbaa !8
  %59 = sext i32 %58 to i64
  %60 = getelementptr inbounds [32 x [32 x i8]], ptr %57, i64 0, i64 %59
  %61 = load i32, ptr %7, align 4, !tbaa !8
  %62 = sext i32 %61 to i64
  %63 = getelementptr inbounds [32 x i8], ptr %60, i64 0, i64 %62
  store i8 0, ptr %63, align 1, !tbaa !10
  br label %64

64:                                               ; preds = %55
  %65 = load i32, ptr %7, align 4, !tbaa !8
  %66 = add nsw i32 %65, 1
  store i32 %66, ptr %7, align 4, !tbaa !8
  br label %51, !llvm.loop !123

67:                                               ; preds = %51
  br label %68

68:                                               ; preds = %67
  %69 = load i32, ptr %6, align 4, !tbaa !8
  %70 = add nsw i32 %69, 1
  store i32 %70, ptr %6, align 4, !tbaa !8
  br label %46, !llvm.loop !124

71:                                               ; preds = %46
  call void @llvm.lifetime.end.p0(i64 4, ptr %7) #9
  call void @llvm.lifetime.end.p0(i64 4, ptr %6) #9
  call void @llvm.lifetime.end.p0(i64 4, ptr %5) #9
  ret void
}

; Function Attrs: nounwind uwtable
define i32 @Dau_DsdDecomposeInt(ptr noundef %0, ptr noundef %1, i32 noundef %2) #0 {
  %4 = alloca ptr, align 8
  %5 = alloca ptr, align 8
  %6 = alloca i32, align 4
  %7 = alloca i32, align 4
  %8 = alloca i32, align 4
  %9 = alloca [16 x i32], align 16
  store ptr %0, ptr %4, align 8, !tbaa !80
  store ptr %1, ptr %5, align 8, !tbaa !35
  store i32 %2, ptr %6, align 4, !tbaa !8
  call void @llvm.lifetime.start.p0(i64 4, ptr %7) #9
  store i32 0, ptr %7, align 4, !tbaa !8
  call void @llvm.lifetime.start.p0(i64 4, ptr %8) #9
  call void @llvm.lifetime.start.p0(i64 64, ptr %9) #9
  %10 = load ptr, ptr %4, align 8, !tbaa !80
  %11 = load i32, ptr %6, align 4, !tbaa !8
  call void @Dau_DsdInitialize(ptr noundef %10, i32 noundef %11)
  %12 = load ptr, ptr %5, align 8, !tbaa !35
  %13 = load i32, ptr %6, align 4, !tbaa !8
  %14 = getelementptr inbounds [16 x i32], ptr %9, i64 0, i64 0
  %15 = call i32 @Dau_DsdMinBase(ptr noundef %12, i32 noundef %13, ptr noundef %14)
  store i32 %15, ptr %8, align 4, !tbaa !8
  %16 = load i32, ptr %8, align 4, !tbaa !8
  %17 = icmp eq i32 %16, 1
  br i1 %17, label %18, label %27

18:                                               ; preds = %3
  %19 = load ptr, ptr %4, align 8, !tbaa !80
  %20 = getelementptr inbounds [16 x i32], ptr %9, i64 0, i64 0
  %21 = load i32, ptr %20, align 16, !tbaa !8
  %22 = load ptr, ptr %5, align 8, !tbaa !35
  %23 = getelementptr inbounds i64, ptr %22, i64 0
  %24 = load i64, ptr %23, align 8, !tbaa !33
  %25 = and i64 %24, 1
  %26 = trunc i64 %25 to i32
  call void @Dau_DsdWriteVar(ptr noundef %19, i32 noundef %21, i32 noundef %26)
  br label %43

27:                                               ; preds = %3
  %28 = load i32, ptr %8, align 4, !tbaa !8
  %29 = icmp sle i32 %28, 6
  br i1 %29, label %30, label %36

30:                                               ; preds = %27
  %31 = load ptr, ptr %4, align 8, !tbaa !80
  %32 = load ptr, ptr %5, align 8, !tbaa !35
  %33 = getelementptr inbounds [16 x i32], ptr %9, i64 0, i64 0
  %34 = load i32, ptr %8, align 4, !tbaa !8
  %35 = call i32 @Dau_Dsd6DecomposeInternal(ptr noundef %31, ptr noundef %32, ptr noundef %33, i32 noundef %34)
  store i32 %35, ptr %7, align 4, !tbaa !8
  br label %42

36:                                               ; preds = %27
  %37 = load ptr, ptr %4, align 8, !tbaa !80
  %38 = load ptr, ptr %5, align 8, !tbaa !35
  %39 = getelementptr inbounds [16 x i32], ptr %9, i64 0, i64 0
  %40 = load i32, ptr %8, align 4, !tbaa !8
  %41 = call i32 @Dau_DsdDecomposeInternal(ptr noundef %37, ptr noundef %38, ptr noundef %39, i32 noundef %40)
  store i32 %41, ptr %7, align 4, !tbaa !8
  br label %42

42:                                               ; preds = %36, %30
  br label %43

43:                                               ; preds = %42, %18
  %44 = load ptr, ptr %4, align 8, !tbaa !80
  call void @Dau_DsdFinalize(ptr noundef %44)
  %45 = load i32, ptr %7, align 4, !tbaa !8
  call void @llvm.lifetime.end.p0(i64 64, ptr %9) #9
  call void @llvm.lifetime.end.p0(i64 4, ptr %8) #9
  call void @llvm.lifetime.end.p0(i64 4, ptr %7) #9
  ret i32 %45
}