; Function Attrs: nounwind uwtable
define range(i32 0, 3) i32 @Dau_DsdDecomposeInt(ptr noundef initializes((0, 24)) %0, ptr noundef %1, i32 noundef %2) local_unnamed_addr #3 {
  %4 = alloca [16 x i32], align 16
  call void @llvm.lifetime.start.p0(i64 64, ptr nonnull %4) #29
  store i32 %2, ptr %0, align 8, !tbaa !86
  %5 = getelementptr inbounds nuw i8, ptr %0, i64 4
  store i32 %2, ptr %5, align 4, !tbaa !87
  %6 = getelementptr inbounds nuw i8, ptr %0, i64 8
  %7 = icmp sgt i32 %2, 0
  tail call void @llvm.memset.p0.i64(ptr noundef nonnull align 8 dereferenceable(16) %6, i8 0, i64 16, i1 false)
  br i1 %7, label %.lr.ph.i, label %Dau_DsdInitialize.exit

.lr.ph.i:                                         ; preds = %3
  %8 = getelementptr inbounds nuw i8, ptr %0, i64 40
  %wide.trip.count.i = zext nneg i32 %2 to i64
  br label %10

.preheader27.i:                                   ; preds = %10
  %invariant.gep.i = getelementptr i8, ptr %0, i64 296
  br label %.preheader.us.i

.preheader.us.i:                                  ; preds = %.preheader.us.i, %.preheader27.i
  %indvar.i = phi i64 [ %indvar.next.i, %.preheader.us.i ], [ 0, %.preheader27.i ]
  %9 = shl nuw nsw i64 %indvar.i, 5
  %gep.i = getelementptr i8, ptr %invariant.gep.i, i64 %9
  tail call void @llvm.memset.p0.i64(ptr align 1 %gep.i, i8 0, i64 %wide.trip.count.i, i1 false), !tbaa !3
  %indvar.next.i = add nuw nsw i64 %indvar.i, 1
  %exitcond39.not.i = icmp eq i64 %indvar.next.i, %wide.trip.count.i
  br i1 %exitcond39.not.i, label %Dau_DsdInitialize.exit, label %.preheader.us.i, !llvm.loop !151

10:                                               ; preds = %10, %.lr.ph.i
  %indvars.iv.i = phi i64 [ 0, %.lr.ph.i ], [ %indvars.iv.next.i, %10 ]
  %11 = trunc i64 %indvars.iv.i to i8
  %12 = add i8 %11, 97
  %13 = getelementptr inbounds nuw [32 x [8 x i8]], ptr %8, i64 0, i64 %indvars.iv.i
  store i8 %12, ptr %13, align 8, !tbaa !3
  %14 = getelementptr inbounds nuw i8, ptr %13, i64 1
  store i8 0, ptr %14, align 1, !tbaa !3
  %indvars.iv.next.i = add nuw nsw i64 %indvars.iv.i, 1
  %exitcond.not.i = icmp eq i64 %indvars.iv.next.i, %wide.trip.count.i
  br i1 %exitcond.not.i, label %.preheader27.i, label %10, !llvm.loop !152

Dau_DsdInitialize.exit:                           ; preds = %.preheader.us.i, %3
  %15 = call i32 @Dau_DsdMinBase(ptr noundef %1, i32 noundef %2, ptr noundef nonnull %4)
  %16 = icmp eq i32 %15, 1
  br i1 %16, label %17, label %22

17:                                               ; preds = %Dau_DsdInitialize.exit
  %18 = load i32, ptr %4, align 16, !tbaa !6
  %19 = load i64, ptr %1, align 8, !tbaa !29
  %20 = trunc i64 %19 to i32
  %21 = and i32 %20, 1
  tail call fastcc void @Dau_DsdWriteVar(ptr noundef nonnull %0, i32 noundef %18, i32 noundef %21)
  br label %Dau_Dsd6DecomposeInternal.exit

22:                                               ; preds = %Dau_DsdInitialize.exit
  %23 = icmp slt i32 %15, 7
  br i1 %23, label %24, label %35

24:                                               ; preds = %22
  %25 = call i32 @Dau_Dsd6DecomposeSingleVar(ptr noundef nonnull %0, ptr noundef %1, ptr noundef nonnull %4, i32 noundef %15)
  %26 = icmp eq i32 %25, 0
  br i1 %26, label %Dau_Dsd6DecomposeInternal.exit, label %27

27:                                               ; preds = %24
  %28 = call i32 @Dau_Dsd6DecomposeDoubleVars(ptr noundef nonnull %0, ptr noundef %1, ptr noundef nonnull %4, i32 noundef %25)
  %29 = icmp eq i32 %28, 0
  br i1 %29, label %Dau_Dsd6DecomposeInternal.exit, label %30

30:                                               ; preds = %27
  %31 = call i32 @Dau_Dsd6DecomposeTripleVars(ptr noundef nonnull %0, ptr noundef %1, ptr noundef nonnull %4, i32 noundef %28)
  %32 = icmp eq i32 %31, 0
  br i1 %32, label %Dau_Dsd6DecomposeInternal.exit, label %33

33:                                               ; preds = %30
  %34 = call fastcc i32 @Dau_DsdWritePrime(ptr noundef nonnull %0, ptr noundef %1, ptr noundef nonnull %4, i32 noundef %31)
  br label %Dau_Dsd6DecomposeInternal.exit

35:                                               ; preds = %22
  %36 = call i32 @Dau_DsdDecomposeSingleVar(ptr noundef nonnull %0, ptr noundef %1, ptr noundef nonnull %4, i32 noundef %15)
  %37 = icmp eq i32 %36, 0
  br i1 %37, label %Dau_Dsd6DecomposeInternal.exit, label %38

38:                                               ; preds = %35
  %39 = call i32 @Dau_DsdDecomposeDoubleVars(ptr noundef nonnull %0, ptr noundef %1, ptr noundef nonnull %4, i32 noundef %36)
  %40 = icmp eq i32 %39, 0
  br i1 %40, label %Dau_Dsd6DecomposeInternal.exit, label %41

41:                                               ; preds = %38
  %42 = call i32 @Dau_DsdDecomposeTripleVars(ptr noundef nonnull %0, ptr noundef %1, ptr noundef nonnull %4, i32 noundef %39)
  %43 = icmp eq i32 %42, 0
  br i1 %43, label %Dau_Dsd6DecomposeInternal.exit, label %44

44:                                               ; preds = %41
  %45 = call fastcc i32 @Dau_DsdWritePrime(ptr noundef nonnull %0, ptr noundef %1, ptr noundef nonnull %4, i32 noundef %42)
  br label %Dau_Dsd6DecomposeInternal.exit

Dau_Dsd6DecomposeInternal.exit:                   ; preds = %44, %41, %38, %35, %33, %30, %27, %24, %17
  %.0 = phi i32 [ 0, %17 ], [ %34, %33 ], [ 0, %24 ], [ 0, %27 ], [ 0, %30 ], [ %45, %44 ], [ 0, %35 ], [ 0, %38 ], [ 0, %41 ]
  %46 = getelementptr inbounds nuw i8, ptr %0, i64 16
  %47 = load i32, ptr %46, align 8, !tbaa !95
  %48 = icmp sgt i32 %47, 0
  br i1 %48, label %.lr.ph.i17, label %Dau_DsdFinalize.exit

.lr.ph.i17:                                       ; preds = %Dau_Dsd6DecomposeInternal.exit
  %49 = getelementptr inbounds nuw i8, ptr %0, i64 20
  %50 = getelementptr inbounds nuw i8, ptr %0, i64 1320
  br label %51

51:                                               ; preds = %51, %.lr.ph.i17
  %52 = phi i32 [ %47, %.lr.ph.i17 ], [ %64, %51 ]
  %.010.i = phi i32 [ 0, %.lr.ph.i17 ], [ %63, %51 ]
  %53 = load i32, ptr %49, align 4, !tbaa !96
  %54 = xor i32 %.010.i, -1
  %55 = add i32 %52, %54
  %56 = shl nuw i32 1, %55
  %57 = and i32 %56, %53
  %.not.i = icmp eq i32 %57, 0
  %58 = select i1 %.not.i, i8 41, i8 93
  %59 = load i32, ptr %6, align 8, !tbaa !93
  %60 = add nsw i32 %59, 1
  store i32 %60, ptr %6, align 8, !tbaa !93
  %61 = sext i32 %59 to i64
  %62 = getelementptr inbounds [2000 x i8], ptr %50, i64 0, i64 %61
  store i8 %58, ptr %62, align 1, !tbaa !3
  %63 = add nuw nsw i32 %.010.i, 1
  %64 = load i32, ptr %46, align 8, !tbaa !95
  %65 = icmp slt i32 %63, %64
  br i1 %65, label %51, label %Dau_DsdFinalize.exit, !llvm.loop !153

Dau_DsdFinalize.exit:                             ; preds = %51, %Dau_Dsd6DecomposeInternal.exit
  %66 = getelementptr inbounds nuw i8, ptr %0, i64 1320
  %67 = load i32, ptr %6, align 8, !tbaa !93
  %68 = add nsw i32 %67, 1
  store i32 %68, ptr %6, align 8, !tbaa !93
  %69 = sext i32 %67 to i64
  %70 = getelementptr inbounds [2000 x i8], ptr %66, i64 0, i64 %69
  store i8 0, ptr %70, align 1, !tbaa !3
  call void @llvm.lifetime.end.p0(i64 64, ptr nonnull %4) #29
  ret i32 %.0
}